	.file	"dam_arr_ex.c"
	.text
	.globl	init_array
	.type	init_array, @function
init_array:
.LFB6:
	.cfi_startproc
	endbr64
	pushq	%rbp
	.cfi_def_cfa_offset 16
	.cfi_offset 6, -16
	movq	%rsp, %rbp
	.cfi_def_cfa_register 6
	movq	%rdi, -24(%rbp)
	movl	%esi, -28(%rbp)
	movl	$0, -4(%rbp)
	jmp	.L2
.L3:
	movl	-4(%rbp), %eax
	cltq
	leaq	0(,%rax,4), %rdx
	movq	-24(%rbp), %rax
	addq	%rax, %rdx
	movl	-4(%rbp), %eax
	movl	%eax, (%rdx)
	addl	$1, -4(%rbp)
.L2:
	movl	-4(%rbp), %eax
	cmpl	-28(%rbp), %eax
	jl	.L3
	nop
	nop
	popq	%rbp
	.cfi_def_cfa 7, 8
	ret
	.cfi_endproc
.LFE6:
	.size	init_array, .-init_array
	.section	.rodata
.LC0:
	.string	"malloc error"
.LC1:
	.string	"%d\n"
	.text
	.globl	main
	.type	main, @function
main:
.LFB7:
	.cfi_startproc
	endbr64
	pushq	%rbp
	.cfi_def_cfa_offset 16
	.cfi_offset 6, -16
	movq	%rsp, %rbp
	.cfi_def_cfa_register 6
	subq	$16, %rsp
	movl	$40, %edi
	call	malloc@PLT
	movq	%rax, -8(%rbp)
	cmpq	$0, -8(%rbp)
	jne	.L5
	leaq	.LC0(%rip), %rax
	movq	%rax, %rdi
	call	puts@PLT
	movl	$1, %edi
	call	exit@PLT
.L5:
	movq	-8(%rbp), %rax
	movl	$10, %esi
	movq	%rax, %rdi
	call	init_array
	movl	$0, -12(%rbp)
	jmp	.L6
.L7:
	movl	-12(%rbp), %eax
	cltq
	leaq	0(,%rax,4), %rdx
	movq	-8(%rbp), %rax
	addq	%rdx, %rax
	movl	(%rax), %eax
	movl	%eax, %esi
	leaq	.LC1(%rip), %rax
	movq	%rax, %rdi
	movl	$0, %eax
	call	printf@PLT
	addl	$1, -12(%rbp)
.L6:
	cmpl	$9, -12(%rbp)
	jle	.L7
	movq	-8(%rbp), %rax
	movq	%rax, %rdi
	call	free@PLT
	movq	$0, -8(%rbp)
	movl	$0, %eax
	leave
	.cfi_def_cfa 7, 8
	ret
	.cfi_endproc
.LFE7:
	.size	main, .-main
	.ident	"GCC: (Ubuntu 11.4.0-1ubuntu1~22.04) 11.4.0"
	.section	.note.GNU-stack,"",@progbits
	.section	.note.gnu.property,"a"
	.align 8
	.long	1f - 0f
	.long	4f - 1f
	.long	5
0:
	.string	"GNU"
1:
	.align 8
	.long	0xc0000002
	.long	3f - 2f
2:
	.long	0x3
3:
	.align 8
4:
